target datalayout = "e-m:e-p270:32:32-p271:32:32-p272:64:64-i64:64-i128:128-f80:128-n8:16:32:64-S128"
target triple = "x86_64-pc-linux-gnu"

@.str.1 = private unnamed_addr constant [12 x i8] c"xlogfuncs.c\00", align 1
@.str.20 = private unnamed_addr constant [28 x i8] c"recovery is not in progress\00", align 1
@.str.21 = private unnamed_addr constant [65 x i8] c"Recovery control functions can only be executed during recovery.\00", align 1
@__func__.pg_get_wal_replay_pause_state = private unnamed_addr constant [30 x i8] c"pg_get_wal_replay_pause_state\00", align 1
@.str.26 = private unnamed_addr constant [11 x i8] c"not paused\00", align 1
@.str.27 = private unnamed_addr constant [16 x i8] c"pause requested\00", align 1
@.str.28 = private unnamed_addr constant [7 x i8] c"paused\00", align 1

; Function Attrs: inlinehint nounwind uwtable
define internal i64 @PointerGetDatum(ptr noundef %0) #3 {
  %2 = alloca ptr, align 8
  store ptr %0, ptr %2, align 8
  %3 = load ptr, ptr %2, align 8
  %4 = ptrtoint ptr %3 to i64
  ret i64 %4
}

; Function Attrs: nounwind uwtable
define dso_local i64 @pg_get_wal_replay_pause_state(ptr noundef %0) #0 {
  %2 = alloca ptr, align 8
  %3 = alloca ptr, align 8
  store ptr %0, ptr %2, align 8
  call void @llvm.lifetime.start.p0(i64 8, ptr %3) #9
  store ptr null, ptr %3, align 8
  %4 = call zeroext i1 @RecoveryInProgress()
  br i1 %4, label %18, label %5

5:                                                ; preds = %1
  br label %6

6:                                                ; preds = %5
  br i1 true, label %7, label %9

7:                                                ; preds = %6
  %8 = call zeroext i1 @errstart_cold(i32 noundef 21, ptr noundef null) #10
  br i1 %8, label %11, label %15

9:                                                ; preds = %6
  %10 = call zeroext i1 @errstart(i32 noundef 21, ptr noundef null)
  br i1 %10, label %11, label %15

11:                                               ; preds = %9, %7
  %12 = call i32 @errcode(i32 noundef 325)
  %13 = call i32 (ptr, ...) @errmsg(ptr noundef @.str.20)
  %14 = call i32 (ptr, ...) @errhint(ptr noundef @.str.21)
  call void @errfinish(ptr noundef @.str.1, i32 noundef 601, ptr noundef @__func__.pg_get_wal_replay_pause_state)
  br label %15

15:                                               ; preds = %11, %9, %7
  unreachable

16:                                               ; No predecessors!
  br label %17

17:                                               ; preds = %16
  br label %18

18:                                               ; preds = %17, %1
  %19 = call i32 @GetRecoveryPauseState()
  switch i32 %19, label %23 [
    i32 0, label %20
    i32 1, label %21
    i32 2, label %22
  ]

20:                                               ; preds = %18
  store ptr @.str.26, ptr %3, align 8
  br label %23

21:                                               ; preds = %18
  store ptr @.str.27, ptr %3, align 8
  br label %23

22:                                               ; preds = %18
  store ptr @.str.28, ptr %3, align 8
  br label %23

23:                                               ; preds = %18, %22, %21, %20
  %24 = load ptr, ptr %3, align 8
  %25 = call ptr @cstring_to_text(ptr noundef %24)
  %26 = call i64 @PointerGetDatum(ptr noundef %25)
  call void @llvm.lifetime.end.p0(i64 8, ptr %3) #9
  ret i64 %26
}