; Function Attrs: nounwind uwtable
define dso_local i64 @pg_get_wal_replay_pause_state(ptr noundef readnone captures(none) %0) local_unnamed_addr #0 {
  %2 = tail call zeroext i1 @RecoveryInProgress() #9
  br i1 %2, label %8, label %3

3:                                                ; preds = %1
  %4 = tail call zeroext i1 @errstart_cold(i32 noundef 21, ptr noundef null) #10
  tail call void @llvm.assume(i1 %4)
  %5 = tail call i32 @errcode(i32 noundef 325) #9
  %6 = tail call i32 (ptr, ...) @errmsg(ptr noundef nonnull @.str.20) #9
  %7 = tail call i32 (ptr, ...) @errhint(ptr noundef nonnull @.str.21) #9
  tail call void @errfinish(ptr noundef nonnull @.str.1, i32 noundef 601, ptr noundef nonnull @__func__.pg_get_wal_replay_pause_state) #9
  unreachable

8:                                                ; preds = %1
  %9 = tail call i32 @GetRecoveryPauseState() #9
  %10 = icmp ult i32 %9, 3
  br i1 %10, label %switch.lookup, label %12

switch.lookup:                                    ; preds = %8
  %11 = zext nneg i32 %9 to i64
  %switch.gep = getelementptr inbounds nuw [3 x ptr], ptr @switch.table.pg_get_wal_replay_pause_state, i64 0, i64 %11
  %switch.load = load ptr, ptr %switch.gep, align 8
  br label %12

12:                                               ; preds = %switch.lookup, %8
  %.0 = phi ptr [ null, %8 ], [ %switch.load, %switch.lookup ]
  %13 = tail call ptr @cstring_to_text(ptr noundef %.0) #9
  %14 = ptrtoint ptr %13 to i64
  ret i64 %14
}